libqapt.so.1 libqapt1 #MINVER#
 _ZN4QApt5Cache11qt_metacallEN11QMetaObject4CallEiPPv@Base 0.3.0
 _ZN4QApt11HistoryItemC1ERK7QString@Base 1.0.80
 _ZN4QApt11HistoryItemC2ERK7QString@Base 1.0.80
 _ZN4QApt11HistoryItemD1Ev@Base 1.0.80
 _ZN4QApt11HistoryItemD2Ev@Base 1.0.80
 _ZN4QApt5Cache11qt_metacastEPKc@Base 0.3.0
 _ZN4QApt5Cache16staticMetaObjectE@Base 0.3.0
 _ZN4QApt5Cache4openEv@Base 0.3.0
 _ZN4QApt5CacheC1EP7QObject@Base 0.3.0
 _ZN4QApt5CacheC2EP7QObject@Base 0.3.0
 _ZN4QApt5CacheD0Ev@Base 0.3.0
 _ZN4QApt5CacheD1Ev@Base 0.3.0
 _ZN4QApt5CacheD2Ev@Base 0.3.0
 _ZN4QApt6Config10writeEntryERK7QStringS3_@Base 1.0.60
 _ZN4QApt6Config10writeEntryERK7QStringb@Base 1.0.60
 _ZN4QApt6Config10writeEntryERK7QStringi@Base 1.0.60
 _ZN4QApt6Config11qt_metacallEN11QMetaObject4CallEiPPv@Base 1.0.60
 _ZN4QApt6Config11qt_metacastEPKc@Base 1.0.60
 _ZN4QApt6Config16staticMetaObjectE@Base 1.0.60
 _ZN4QApt6ConfigC1EP7QObject@Base 1.0.60
 _ZN4QApt6ConfigC2EP7QObject@Base 1.0.60
 _ZN4QApt6ConfigD0Ev@Base 1.0.60
 _ZN4QApt6ConfigD1Ev@Base 1.0.60
 _ZN4QApt6ConfigD2Ev@Base 1.0.60
 _ZN4QApt7Backend11qt_metacallEN11QMetaObject4CallEiPPv@Base 0.3.0
 _ZN4QApt7Backend11qt_metacastEPKc@Base 0.3.0
 _ZN4QApt7Backend11reloadCacheEv@Base 0.3.0
 _ZN4QApt7Backend11updateCacheEv@Base 0.3.0
 _ZN4QApt7Backend11workerEventENS_11WorkerEventE@Base 0.3.0
 _ZN4QApt7Backend13commitChangesEv@Base 0.3.0
 _ZN4QApt7Backend13errorOccurredENS_9ErrorCodeERK4QMapI7QString8QVariantE@Base 0.3.0
 _ZN4QApt7Backend13workerStartedEv@Base 0.3.0
 _ZN4QApt7Backend14cancelDownloadEv@Base 0.3.0
 _ZN4QApt7Backend14commitProgressERK7QStringi@Base 0.3.0
 _ZN4QApt7Backend14loadSelectionsERK7QString@Base 0.3.0
 _ZN4QApt7Backend14packageChangedEPNS_7PackageE@Base 0.3.0
 _ZN4QApt7Backend14packageChangedEv@Base 0.3.0
 _ZN4QApt7Backend14saveCacheStateEv@Base 0.3.0
 _ZN4QApt7Backend14throwInitErrorEv@Base 1.0.60
 _ZN4QApt7Backend14workerFinishedEb@Base 0.3.0
 _ZN4QApt7Backend15downloadMessageEiRK7QString@Base 0.3.0
 _ZN4QApt7Backend15emitWorkerEventEi@Base 0.3.0
 _ZN4QApt7Backend15openXapianIndexEv@Base 0.3.0
 _ZN4QApt7Backend15warningOccurredENS_11WarningCodeERK4QMapI7QString8QVariantE@Base 0.3.0
 _ZN4QApt7Backend16downloadProgressEiii@Base 0.3.0
 _ZN4QApt7Backend16questionOccurredENS_14WorkerQuestionERK4QMapI7QString8QVariantE@Base 0.3.0
 _ZN4QApt7Backend16staticMetaObjectE@Base 0.3.0
 _ZN4QApt7Backend17emitErrorOccurredEiRK4QMapI7QString8QVariantE@Base 0.3.0
 _ZN4QApt7Backend17restoreCacheStateERK5QListIiE@Base 0.3.0
 _ZN4QApt7Backend17updateXapianIndexEv@Base 0.3.0
 _ZN4QApt7Backend19emitWarningOccurredEiRK4QMapI7QString8QVariantE@Base 0.3.0
 _ZN4QApt7Backend19serviceOwnerChangedERK7QStringS3_S3_@Base 0.3.0
 _ZN4QApt7Backend20answerWorkerQuestionERK4QMapI7QString8QVariantE@Base 0.3.0
 _ZN4QApt7Backend20setUndoRedoCacheSizeEi@Base 1.0.60
 _ZN4QApt7Backend20xapianUpdateProgressEi@Base 1.0.60
 _ZN4QApt7Backend21markPackageForInstallERK7QString@Base 0.3.0
 _ZN4QApt7Backend21markPackageForRemovalERK7QString@Base 0.3.0
 _ZN4QApt7Backend22markPackagesForUpgradeEv@Base 0.3.0
 _ZN4QApt7Backend23packageDownloadProgressERK7QStringiS3_di@Base 1.0.60
 _ZN4QApt7Backend25markPackagesForAutoRemoveEv@Base 1.0.60
 _ZN4QApt7Backend26emitWorkerQuestionOccurredEiRK4QMapI7QString8QVariantE@Base 0.3.0
 _ZN4QApt7Backend26markPackagesForDistUpgradeEv@Base 0.3.0
 _ZN4QApt7Backend4initEv@Base 0.3.0
 _ZN4QApt7Backend4redoEv@Base 0.3.0
 _ZN4QApt7Backend4undoEv@Base 0.3.0
 _ZN4QApt7BackendC1Ev@Base 0.3.0
 _ZN4QApt7BackendC2Ev@Base 0.3.0
 _ZN4QApt7BackendD0Ev@Base 0.3.0
 _ZN4QApt7BackendD1Ev@Base 0.3.0
 _ZN4QApt7BackendD2Ev@Base 0.3.0
 _ZN4QApt7History11qt_metacallEN11QMetaObject4CallEiPPv@Base 1.0.80
 _ZN4QApt7History11qt_metacastEPKc@Base 1.0.80
 _ZN4QApt7History16staticMetaObjectE@Base 1.0.80
 _ZN4QApt7History6reloadEv@Base 1.0.80
 _ZN4QApt7HistoryC1EP7QObject@Base 1.0.80
 _ZN4QApt7HistoryC2EP7QObject@Base 1.0.80
 _ZN4QApt7HistoryD0Ev@Base 1.0.80
 _ZN4QApt7HistoryD1Ev@Base 1.0.80
 _ZN4QApt7HistoryD2Ev@Base 1.0.80
 _ZN4QApt7Package10setInstallEv@Base 0.3.0
 _ZN4QApt7Package10setVersionERK7QString@Base 0.3.0
 _ZN4QApt7Package12setReInstallEv@Base 0.3.0
 _ZN4QApt7Package7setAutoEb@Base 0.3.0
 _ZN4QApt7Package7setKeepEv@Base 0.3.0
 _ZN4QApt7Package8setPurgeEv@Base 0.3.0
 _ZN4QApt7Package9setRemoveEv@Base 0.3.0
 _ZN4QApt7PackageC1EPNS_7BackendEP11pkgDepCacheP10pkgRecordsRN8pkgCache11PkgIteratorE@Base 0.3.0
 _ZN4QApt7PackageC2EPNS_7BackendEP11pkgDepCacheP10pkgRecordsRN8pkgCache11PkgIteratorE@Base 0.3.0
 _ZN4QApt7PackageD0Ev@Base 0.3.0
 _ZN4QApt7PackageD1Ev@Base 0.3.0
 _ZN4QApt7PackageD2Ev@Base 1.0.60
 _ZNK4QApt11HistoryItem11errorStringEv@Base 1.0.80
 _ZNK4QApt11HistoryItem14purgedPackagesEv@Base 1.0.80
 _ZNK4QApt11HistoryItem15removedPackagesEv@Base 1.0.80
 _ZNK4QApt11HistoryItem16upgradedPackagesEv@Base 1.0.80
 _ZNK4QApt11HistoryItem17installedPackagesEv@Base 1.0.80
 _ZNK4QApt11HistoryItem18downgradedPackagesEv@Base 1.0.80
 _ZNK4QApt11HistoryItem7isValidEv@Base 1.0.80
 _ZNK4QApt11HistoryItem9startDateEv@Base 1.0.80
 _ZNK4QApt5Cache10metaObjectEv@Base 0.3.0
 _ZNK4QApt5Cache10trustCacheEv@Base 1.0.60
 _ZNK4QApt5Cache4listEv@Base 0.3.0
 _ZNK4QApt5Cache8depCacheEv@Base 0.3.0
 _ZNK4QApt6Config10metaObjectEv@Base 1.0.60
 _ZNK4QApt6Config9readEntryERK7QStringS3_@Base 1.0.60
 _ZNK4QApt6Config9readEntryERK7QStringb@Base 1.0.60
 _ZNK4QApt6Config9readEntryERK7QStringi@Base 1.0.60
 _ZNK4QApt7Backend10metaObjectEv@Base 0.3.0
 _ZNK4QApt7Backend11installSizeEv@Base 0.3.0
 _ZNK4QApt7Backend11originLabelERK7QString@Base 0.3.0
 _ZNK4QApt7Backend11workerStateEv@Base 1.0.80
 _ZNK4QApt7Backend12downloadSizeEv@Base 0.3.0
 _ZNK4QApt7Backend12originLabelsEv@Base 0.3.0
 _ZNK4QApt7Backend12packageCountERK6QFlagsINS_7Package5StateEE@Base 0.3.0
 _ZNK4QApt7Backend12packageCountEv@Base 0.3.0
 _ZNK4QApt7Backend13toRemoveCountEv@Base 1.0.60
 _ZNK4QApt7Backend14installedCountEv@Base 1.0.60
 _ZNK4QApt7Backend14markedPackagesEv@Base 0.3.0
 _ZNK4QApt7Backend14packageForFileERK7QString@Base 0.4.0
 _ZNK4QApt7Backend14saveSelectionsERK7QString@Base 0.3.0
 _ZNK4QApt7Backend14toInstallCountEv@Base 1.0.60
 _ZNK4QApt7Backend15availableGroupsEv@Base 0.3.0
 _ZNK4QApt7Backend16areChangesMarkedEv@Base 1.0.90
 _ZNK4QApt7Backend16isRedoStackEmptyEv@Base 0.3.0
 _ZNK4QApt7Backend16isUndoStackEmptyEv@Base 0.3.0
 _ZNK4QApt7Backend17availablePackagesEv@Base 0.3.0
 _ZNK4QApt7Backend17currentCacheStateEv@Base 0.3.0
 _ZNK4QApt7Backend17packageSourceListEv@Base 0.3.0
 _ZNK4QApt7Backend19upgradeablePackagesEv@Base 0.3.0
 _ZNK4QApt7Backend22xapianIndexNeedsUpdateEv@Base 0.3.0
 _ZNK4QApt7Backend25saveInstalledPackagesListERK7QString@Base 1.0.60
 _ZNK4QApt7Backend5cacheEv@Base 1.0.60
 _ZNK4QApt7Backend6configEv@Base 1.0.60
 _ZNK4QApt7Backend6originE7QString@Base 0.3.0
 _ZNK4QApt7Backend6searchERK7QString@Base 0.3.0
 _ZNK4QApt7Backend7packageERK13QLatin1String@Base 1.0.90
 _ZNK4QApt7Backend7packageERK7QString@Base 0.3.0
 _ZNK4QApt7Backend7packageERN8pkgCache11PkgIteratorE@Base 0.3.0
 _ZNK4QApt7Backend8isBrokenEv@Base 0.3.0
 _ZNK4QApt7History10metaObjectEv@Base 1.0.80
 _ZNK4QApt7History12historyItemsEv@Base 1.0.80
 _ZNK4QApt7Package10latin1NameEv@Base 1.0.60
 _ZNK4QApt7Package10maintainerEv@Base 0.3.0
 _ZNK4QApt7Package10wouldBreakEv@Base 0.3.0
 _ZNK4QApt7Package11isInstalledEv@Base 0.3.0
 _ZNK4QApt7Package11isSupportedEv@Base 0.3.0
 _ZNK4QApt7Package12brokenReasonEv@Base 0.3.0
 _ZNK4QApt7Package12changelogUrlEv@Base 0.3.0
 _ZNK4QApt7Package12controlFieldERK13QLatin1String@Base 1.0.95
 _ZNK4QApt7Package12controlFieldERK7QString@Base 1.1.0
 _ZNK4QApt7Package12downloadSizeEv@Base 0.3.0
 _ZNK4QApt7Package12enhancesListEv@Base 1.0.90
 _ZNK4QApt7Package12providesListEv@Base 0.3.0
 _ZNK4QApt7Package12suggestsListEv@Base 1.0.90
 _ZNK4QApt7Package13latin1SectionEv@Base 1.0.60
 _ZNK4QApt7Package13screenshotUrlENS_14ScreenshotTypeE@Base 0.3.0
 _ZNK4QApt7Package13sourcePackageEv@Base 0.3.0
 _ZNK4QApt7Package14dependencyListEb@Base 0.3.0
 _ZNK4QApt7Package14requiredByListEv@Base 0.3.0
 _ZNK4QApt7Package14enhancedByListEv@Base 1.0.90
 _ZNK4QApt7Package14recommendsListEv@Base 1.0.90
 _ZNK4QApt7Package14supportedUntilEv@Base 0.3.0
 _ZNK4QApt7Package15longDescriptionEv@Base 0.3.0
 _ZNK4QApt7Package15packageIteratorEv@Base 0.3.0
 _ZNK4QApt7Package16availableVersionEv@Base 0.3.0
 _ZNK4QApt7Package16installedVersionEv@Base 0.3.0
 _ZNK4QApt7Package16shortDescriptionEv@Base 0.3.0
 _ZNK4QApt7Package17availableVersionsEv@Base 0.3.0
 _ZNK4QApt7Package18installedFilesListEv@Base 0.3.0
 _ZNK4QApt7Package20currentInstalledSizeEv@Base 0.3.0
 _ZNK4QApt7Package22availableInstalledSizeEv@Base 0.3.0
 _ZNK4QApt7Package2idEv@Base 0.3.0
 _ZNK4QApt7Package4nameEv@Base 0.3.0
 _ZNK4QApt7Package5stateEv@Base 0.3.0
 _ZNK4QApt7Package6originEv@Base 0.3.0
 _ZNK4QApt7Package7sectionEv@Base 0.3.0
 _ZNK4QApt7Package7versionEv@Base 0.3.0
 _ZNK4QApt7Package8homepageEv@Base 0.3.0
 _ZNK4QApt7Package8priorityEv@Base 0.3.0
 _ZNK4QApt7Package9componentEv@Base 0.3.0
 _ZNK4QApt7Package9isTrustedEv@Base 0.3.0
 (optional=templinst)_ZSt6__findIN9__gnu_cxx17__normal_iteratorIPP12pkgIndexFileSt6vectorIS3_SaIS3_EEEES3_ET_S9_S9_RKT0_St26random_access_iterator_tag@Base 1.1.0
 _ZTIN4QApt5CacheE@Base 0.3.0
 _ZTIN4QApt6ConfigE@Base 1.0.60
 _ZTIN4QApt7BackendE@Base 0.3.0
 _ZTIN4QApt7HistoryE@Base 1.0.90
 _ZTIN4QApt7PackageE@Base 0.3.0
 _ZTIN6Xapian12RuntimeErrorE@Base 0.3.0
 _ZTIN6Xapian13DatabaseErrorE@Base 0.3.0
 _ZTIN6Xapian20DatabaseOpeningErrorE@Base 0.3.0
 _ZTIN6Xapian5ErrorE@Base 0.3.0
 (optional=templinst)_ZTISt8iteratorISt20forward_iterator_tagN8pkgCache10DependencyEiPS2_RS2_E@Base 1.1.0
 (optional=templinst)_ZTISt8iteratorISt20forward_iterator_tagN8pkgCache11PackageFileEiPS2_RS2_E@Base 1.1.0
 (optional=templinst)_ZTISt8iteratorISt20forward_iterator_tagN8pkgCache7PackageEiPS2_RS2_E@Base 1.1.0
 (optional=templinst)_ZTISt8iteratorISt20forward_iterator_tagN8pkgCache7VerFileEiPS2_RS2_E@Base 1.1.0
 (optional=templinst)_ZTISt8iteratorISt20forward_iterator_tagN8pkgCache7VersionEiPS2_RS2_E@Base 1.1.0
 (optional=templinst)_ZTISt8iteratorISt20forward_iterator_tagN8pkgCache8DescFileEiPS2_RS2_E@Base 1.1.0
 (optional=templinst)_ZTISt8iteratorISt20forward_iterator_tagN8pkgCache8ProvidesEiPS2_RS2_E@Base 1.1.0
 _ZTSN4QApt5CacheE@Base 0.3.0
 _ZTSN4QApt6ConfigE@Base 1.0.60
 _ZTSN4QApt7HistoryE@Base 1.0.80
 _ZTSN4QApt7BackendE@Base 0.3.0
 _ZTSN4QApt7PackageE@Base 0.3.0
 _ZTSN6Xapian12RuntimeErrorE@Base 0.3.0
 _ZTSN6Xapian13DatabaseErrorE@Base 0.3.0
 _ZTSN6Xapian20DatabaseOpeningErrorE@Base 0.3.0
 _ZTSN6Xapian5ErrorE@Base 0.3.0
 (optional=templinst)_ZTSSt8iteratorISt20forward_iterator_tagN8pkgCache10DependencyEiPS2_RS2_E@Base 1.1.0
 (optional=templinst)_ZTSSt8iteratorISt20forward_iterator_tagN8pkgCache11PackageFileEiPS2_RS2_E@Base 1.1.0
 (optional=templinst)_ZTSSt8iteratorISt20forward_iterator_tagN8pkgCache7PackageEiPS2_RS2_E@Base 1.1.0
 (optional=templinst)_ZTSSt8iteratorISt20forward_iterator_tagN8pkgCache7VerFileEiPS2_RS2_E@Base 1.1.0
 (optional=templinst)_ZTSSt8iteratorISt20forward_iterator_tagN8pkgCache7VersionEiPS2_RS2_E@Base 1.1.0
 (optional=templinst)_ZTSSt8iteratorISt20forward_iterator_tagN8pkgCache8DescFileEiPS2_RS2_E@Base 1.1.0
 (optional=templinst)_ZTSSt8iteratorISt20forward_iterator_tagN8pkgCache8ProvidesEiPS2_RS2_E@Base 1.1.0
 _ZTVN4QApt5CacheE@Base 0.3.0
 _ZTVN4QApt6ConfigE@Base 1.0.60
 _ZTVN4QApt7BackendE@Base 0.3.0
 _ZTVN4QApt7HistoryE@Base 1.0.80
 _ZTVN4QApt7PackageE@Base 0.3.0
